; Function Attrs: mustprogress uwtable
define hidden void @_ZN4cvc58internal6theory11quantifiers15FirstOrderModel25getInternalRepresentativeENS0_12NodeTemplateILb1EEES5_m(ptr dead_on_unwind noalias writable sret(%"class.cvc5::internal::NodeTemplate") align 8 %0, ptr noundef nonnull align 8 dereferenceable(664) %1, ptr noundef readonly captures(none) %2, ptr noundef readonly captures(none) %3, i64 noundef %4) local_unnamed_addr #3 align 2 personality ptr @__gxx_personality_v0 {
  %6 = alloca %"class.cvc5::internal::NodeTemplate", align 8
  %7 = alloca %"class.cvc5::internal::NodeTemplate", align 8
  %8 = load ptr, ptr %2, align 8, !tbaa !73
  store ptr %8, ptr %6, align 8, !tbaa !73
  %9 = load i64, ptr %8, align 8
  %10 = lshr i64 %9, 40
  %11 = trunc nuw nsw i64 %10 to i32
  %12 = and i32 %11, 1048575
  %13 = icmp samesign ult i32 %12, 1048574
  br i1 %13, label %14, label %19, !prof !122

14:                                               ; preds = %5
  %15 = add i64 %9, 1099511627776
  %16 = and i64 %15, 1152920405095219200
  %17 = and i64 %9, -1152920405095219201
  %18 = or disjoint i64 %16, %17
  store i64 %18, ptr %8, align 8
  br label %_ZN4cvc58internal12NodeTemplateILb1EEC2ERKS2_.exit

19:                                               ; preds = %5
  %20 = icmp eq i32 %12, 1048574
  br i1 %20, label %21, label %_ZN4cvc58internal12NodeTemplateILb1EEC2ERKS2_.exit, !prof !81

21:                                               ; preds = %19
  %22 = or i64 %9, 1152920405095219200
  store i64 %22, ptr %8, align 8
  tail call void @_ZN4cvc58internal4expr9NodeValue20markRefCountMaxedOutEv(ptr noundef nonnull align 8 dereferenceable(24) %8)
  br label %_ZN4cvc58internal12NodeTemplateILb1EEC2ERKS2_.exit

_ZN4cvc58internal12NodeTemplateILb1EEC2ERKS2_.exit: ; preds = %14, %19, %21
  %23 = load ptr, ptr %3, align 8, !tbaa !73
  store ptr %23, ptr %7, align 8, !tbaa !73
  %24 = load i64, ptr %23, align 8
  %25 = lshr i64 %24, 40
  %26 = trunc nuw nsw i64 %25 to i32
  %27 = and i32 %26, 1048575
  %28 = icmp samesign ult i32 %27, 1048574
  br i1 %28, label %29, label %34, !prof !122

29:                                               ; preds = %_ZN4cvc58internal12NodeTemplateILb1EEC2ERKS2_.exit
  %30 = add i64 %24, 1099511627776
  %31 = and i64 %30, 1152920405095219200
  %32 = and i64 %24, -1152920405095219201
  %33 = or disjoint i64 %31, %32
  store i64 %33, ptr %23, align 8
  br label %_ZN4cvc58internal12NodeTemplateILb1EEC2ERKS2_.exit5

34:                                               ; preds = %_ZN4cvc58internal12NodeTemplateILb1EEC2ERKS2_.exit
  %35 = icmp eq i32 %27, 1048574
  br i1 %35, label %36, label %_ZN4cvc58internal12NodeTemplateILb1EEC2ERKS2_.exit5, !prof !81

36:                                               ; preds = %34
  %37 = or i64 %24, 1152920405095219200
  store i64 %37, ptr %23, align 8
  invoke void @_ZN4cvc58internal4expr9NodeValue20markRefCountMaxedOutEv(ptr noundef nonnull align 8 dereferenceable(24) %23)
          to label %_ZN4cvc58internal12NodeTemplateILb1EEC2ERKS2_.exit5 unwind label %66

_ZN4cvc58internal12NodeTemplateILb1EEC2ERKS2_.exit5: ; preds = %34, %29, %36
  %38 = getelementptr inbounds nuw i8, ptr %1, i64 48
  invoke void @_ZN4cvc58internal6theory11quantifiers13EqualityQuery25getInternalRepresentativeENS0_12NodeTemplateILb1EEES5_m(ptr dead_on_unwind writable sret(%"class.cvc5::internal::NodeTemplate") align 8 %0, ptr noundef nonnull align 8 dereferenceable(184) %38, ptr noundef nonnull %6, ptr noundef nonnull %7, i64 noundef %4)
          to label %39 unwind label %68

39:                                               ; preds = %_ZN4cvc58internal12NodeTemplateILb1EEC2ERKS2_.exit5
  %40 = load ptr, ptr %7, align 8, !tbaa !73
  %41 = load i64, ptr %40, align 8
  %42 = and i64 %41, 1152920405095219200
  %.not.i.i = icmp eq i64 %42, 1152920405095219200
  br i1 %.not.i.i, label %_ZN4cvc58internal12NodeTemplateILb1EED2Ev.exit, label %43, !prof !81

43:                                               ; preds = %39
  %44 = add i64 %41, 1152920405095219200
  %45 = and i64 %44, 1152920405095219200
  %46 = and i64 %41, -1152920405095219201
  %47 = or disjoint i64 %45, %46
  store i64 %47, ptr %40, align 8
  %48 = icmp eq i64 %45, 0
  br i1 %48, label %49, label %_ZN4cvc58internal12NodeTemplateILb1EED2Ev.exit, !prof !81

49:                                               ; preds = %43
  invoke void @_ZN4cvc58internal4expr9NodeValue15markForDeletionEv(ptr noundef nonnull align 8 dereferenceable(24) %40)
          to label %_ZN4cvc58internal12NodeTemplateILb1EED2Ev.exit unwind label %50

50:                                               ; preds = %49
  %51 = landingpad { ptr, i32 }
          catch ptr null
  %52 = extractvalue { ptr, i32 } %51, 0
  call void @__clang_call_terminate(ptr %52) #30
  unreachable

_ZN4cvc58internal12NodeTemplateILb1EED2Ev.exit:   ; preds = %39, %43, %49
  %53 = load ptr, ptr %6, align 8, !tbaa !73
  %54 = load i64, ptr %53, align 8
  %55 = and i64 %54, 1152920405095219200
  %.not.i.i6 = icmp eq i64 %55, 1152920405095219200
  br i1 %.not.i.i6, label %_ZN4cvc58internal12NodeTemplateILb1EED2Ev.exit7, label %56, !prof !81

56:                                               ; preds = %_ZN4cvc58internal12NodeTemplateILb1EED2Ev.exit
  %57 = add i64 %54, 1152920405095219200
  %58 = and i64 %57, 1152920405095219200
  %59 = and i64 %54, -1152920405095219201
  %60 = or disjoint i64 %58, %59
  store i64 %60, ptr %53, align 8
  %61 = icmp eq i64 %58, 0
  br i1 %61, label %62, label %_ZN4cvc58internal12NodeTemplateILb1EED2Ev.exit7, !prof !81

62:                                               ; preds = %56
  invoke void @_ZN4cvc58internal4expr9NodeValue15markForDeletionEv(ptr noundef nonnull align 8 dereferenceable(24) %53)
          to label %_ZN4cvc58internal12NodeTemplateILb1EED2Ev.exit7 unwind label %63

63:                                               ; preds = %62
  %64 = landingpad { ptr, i32 }
          catch ptr null
  %65 = extractvalue { ptr, i32 } %64, 0
  call void @__clang_call_terminate(ptr %65) #30
  unreachable

_ZN4cvc58internal12NodeTemplateILb1EED2Ev.exit7:  ; preds = %_ZN4cvc58internal12NodeTemplateILb1EED2Ev.exit, %56, %62
  ret void

66:                                               ; preds = %36
  %67 = landingpad { ptr, i32 }
          cleanup
  br label %70

68:                                               ; preds = %_ZN4cvc58internal12NodeTemplateILb1EEC2ERKS2_.exit5
  %69 = landingpad { ptr, i32 }
          cleanup
  call void @_ZN4cvc58internal12NodeTemplateILb1EED2Ev(ptr noundef nonnull align 8 dereferenceable(8) %7) #28
  br label %70

70:                                               ; preds = %68, %66
  %.pn = phi { ptr, i32 } [ %69, %68 ], [ %67, %66 ]
  call void @_ZN4cvc58internal12NodeTemplateILb1EED2Ev(ptr noundef nonnull align 8 dereferenceable(8) %6) #28
  resume { ptr, i32 } %.pn
}